target datalayout = "e-m:e-p270:32:32-p271:32:32-p272:64:64-i64:64-i128:128-f80:128-n8:16:32:64-S128"
target triple = "x86_64-pc-linux-gnu"

%struct._e_prefs = type { ptr, i32, %struct.color_t, %struct.color_t, %struct.color_t, %struct.color_t, %struct.color_t, %struct.color_t, %struct.color_t, i8, i32, ptr, i32, %struct.color_t, %struct.color_t, i32, %struct.color_t, %struct.color_t, i32, %struct.color_t, %struct.color_t, %struct.color_t, %struct.color_t, ptr, ptr, i8, i8, i8, i32, i32, i32, ptr, i32, ptr, i8, i8, i8, ptr, ptr, ptr, i32, i32, i32, i32, i8, i32, i32, i32, i32, i32, ptr, i8, i8, i8, i8, i8, ptr, ptr, ptr, ptr, ptr, ptr, ptr, ptr, ptr, i8, i8, i8, i8, i32, i8, i8, i8, ptr, i32, i8, i8, i32, i8, i8, i8, i32, i8, i32, i8, i8, i8, i32, i32, i32, ptr, i8, i8, i8, i8, i8, i8, i32, i32, i8, i8, i8, i8, i32, i32, i32, i32, i8, i8, i32, i8, i8, i32, i32, i8, i8, i8, i32, i8, i8, i8 }
%struct.color_t = type { i16, i16, i16 }
%struct.call_foreach_t = type { ptr, ptr, i32, i8 }
%struct.pref_module = type { ptr, ptr, ptr, ptr, ptr, ptr, ptr, ptr, i32, i32, i8, i8, i32 }
%struct.write_gui_pref_arg_t = type { ptr, i8 }

@prefs = global %struct._e_prefs zeroinitializer, align 8
@prefs_modules = internal global ptr null, align 8
@prefs_top_level_modules = internal global ptr null, align 8
@.str = private unnamed_addr constant [5 x i8] c"Epan\00", align 1
@.str.1 = private unnamed_addr constant [13 x i8] c"epan/prefs.c\00", align 1
@prefs_initialized = internal global i8 0, align 1
@.str.14 = private unnamed_addr constant [12 x i8] c"preferences\00", align 1
@.str.83 = private unnamed_addr constant [2 x i8] c"w\00", align 1
@stdout = external global ptr, align 8
@.str.84 = private unnamed_addr constant [20 x i8] c"Display expressions\00", align 1
@__func__.write_prefs = private unnamed_addr constant [12 x i8] c"write_prefs\00", align 1
@.str.85 = private unnamed_addr constant [39 x i8] c"Unable to save Display expressions: %s\00", align 1
@.str.86 = private unnamed_addr constant [7 x i8] c"extcap\00", align 1
@.str.87 = private unnamed_addr constant [11 x i8] c"extcap.cfg\00", align 1
@.str.88 = private unnamed_addr constant [43 x i8] c"Unable to save extcap preferences \22%s\22: %s\00", align 1
@gui_module = internal global ptr null, align 8

; Function Attrs: null_pointer_is_valid sspstrong uwtable
define internal i32 @prefs_module_list_foreach(ptr noundef %0, ptr noundef %1, ptr noundef %2, i1 noundef zeroext %3) #1 {
  %5 = alloca ptr, align 8
  %6 = alloca ptr, align 8
  %7 = alloca ptr, align 8
  %8 = alloca i8, align 1
  %9 = alloca %struct.call_foreach_t, align 8
  store ptr %0, ptr %5, align 8
  store ptr %1, ptr %6, align 8
  store ptr %2, ptr %7, align 8
  %10 = zext i1 %3 to i8
  store i8 %10, ptr %8, align 1
  call void @llvm.lifetime.start.p0(i64 24, ptr %9) #17
  %11 = load ptr, ptr %5, align 8
  %12 = icmp eq ptr %11, null
  br i1 %12, label %13, label %15

13:                                               ; preds = %4
  %14 = load ptr, ptr @prefs_top_level_modules, align 8
  store ptr %14, ptr %5, align 8
  br label %15

15:                                               ; preds = %13, %4
  %16 = load ptr, ptr %6, align 8
  %17 = getelementptr inbounds nuw %struct.call_foreach_t, ptr %9, i32 0, i32 0
  store ptr %16, ptr %17, align 8
  %18 = load ptr, ptr %7, align 8
  %19 = getelementptr inbounds nuw %struct.call_foreach_t, ptr %9, i32 0, i32 1
  store ptr %18, ptr %19, align 8
  %20 = getelementptr inbounds nuw %struct.call_foreach_t, ptr %9, i32 0, i32 2
  store i32 0, ptr %20, align 8
  %21 = load i8, ptr %8, align 1, !range !6, !noundef !7
  %22 = trunc i8 %21 to i1
  %23 = getelementptr inbounds nuw %struct.call_foreach_t, ptr %9, i32 0, i32 3
  %24 = zext i1 %22 to i8
  store i8 %24, ptr %23, align 4
  %25 = load ptr, ptr %5, align 8
  %26 = call zeroext i1 @wmem_tree_foreach(ptr noundef %25, ptr noundef @call_foreach_cb, ptr noundef %9)
  %27 = getelementptr inbounds nuw %struct.call_foreach_t, ptr %9, i32 0, i32 2
  %28 = load i32, ptr %27, align 8
  call void @llvm.lifetime.end.p0(i64 24, ptr %9) #17
  ret i32 %28
}

; Function Attrs: null_pointer_is_valid sspstrong uwtable
define i32 @prefs_modules_foreach_submodules(ptr noundef %0, ptr noundef %1, ptr noundef %2) #1 {
  %4 = alloca ptr, align 8
  %5 = alloca ptr, align 8
  %6 = alloca ptr, align 8
  store ptr %0, ptr %4, align 8
  store ptr %1, ptr %5, align 8
  store ptr %2, ptr %6, align 8
  %7 = load ptr, ptr %4, align 8
  %8 = icmp ne ptr %7, null
  br i1 %8, label %9, label %13

9:                                                ; preds = %3
  %10 = load ptr, ptr %4, align 8
  %11 = getelementptr inbounds nuw %struct.pref_module, ptr %10, i32 0, i32 7
  %12 = load ptr, ptr %11, align 8
  br label %15

13:                                               ; preds = %3
  %14 = load ptr, ptr @prefs_top_level_modules, align 8
  br label %15

15:                                               ; preds = %13, %9
  %16 = phi ptr [ %12, %9 ], [ %14, %13 ]
  %17 = load ptr, ptr %5, align 8
  %18 = load ptr, ptr %6, align 8
  %19 = call i32 @prefs_module_list_foreach(ptr noundef %16, ptr noundef %17, ptr noundef %18, i1 noundef zeroext true)
  ret i32 %19
}

; Function Attrs: null_pointer_is_valid sspstrong uwtable
define ptr @prefs_find_module(ptr noundef %0) #1 {
  %2 = alloca ptr, align 8
  store ptr %0, ptr %2, align 8
  %3 = load ptr, ptr @prefs_modules, align 8
  %4 = load ptr, ptr %2, align 8
  %5 = call ptr @wmem_tree_lookup_string(ptr noundef %3, ptr noundef %4, i32 noundef 1)
  ret ptr %5
}

; Function Attrs: null_pointer_is_valid sspstrong uwtable
define internal void @init_prefs() #1 {
  %1 = load i8, ptr @prefs_initialized, align 1, !range !6, !noundef !7
  %2 = trunc i8 %1 to i1
  br i1 %2, label %3, label %4

3:                                                ; preds = %0
  br label %5

4:                                                ; preds = %0
  call void @uat_load_all()
  call void @pre_init_prefs()
  call void @prefs_register_modules()
  store i8 1, ptr @prefs_initialized, align 1
  br label %5

5:                                                ; preds = %4, %3
  ret void
}

; Function Attrs: null_pointer_is_valid sspstrong uwtable
define i32 @write_prefs(ptr noundef %0) #1 {
  %2 = alloca i32, align 4
  %3 = alloca ptr, align 8
  %4 = alloca ptr, align 8
  %5 = alloca ptr, align 8
  %6 = alloca %struct.write_gui_pref_arg_t, align 8
  %7 = alloca i32, align 4
  %8 = alloca ptr, align 8
  %9 = alloca ptr, align 8
  %10 = alloca ptr, align 8
  %11 = alloca ptr, align 8
  store ptr %0, ptr %3, align 8
  call void @llvm.lifetime.start.p0(i64 8, ptr %4) #17
  call void @llvm.lifetime.start.p0(i64 8, ptr %5) #17
  call void @llvm.lifetime.start.p0(i64 16, ptr %6) #17
  call void @init_prefs()
  %12 = load ptr, ptr %3, align 8
  %13 = icmp ne ptr %12, null
  br i1 %13, label %14, label %26

14:                                               ; preds = %1
  %15 = call ptr @get_persconffile_path(ptr noundef @.str.14, i1 noundef zeroext true)
  store ptr %15, ptr %4, align 8
  %16 = load ptr, ptr %4, align 8
  %17 = call noalias ptr @fopen(ptr noundef %16, ptr noundef @.str.83)
  store ptr %17, ptr %5, align 8
  %18 = icmp eq ptr %17, null
  br i1 %18, label %19, label %24

19:                                               ; preds = %14
  %20 = load ptr, ptr %4, align 8
  %21 = load ptr, ptr %3, align 8
  store ptr %20, ptr %21, align 8
  %22 = call ptr @__errno_location() #23
  %23 = load i32, ptr %22, align 4
  store i32 %23, ptr %2, align 4
  store i32 1, ptr %7, align 4
  br label %95

24:                                               ; preds = %14
  %25 = load ptr, ptr %4, align 8
  call void @g_free(ptr noundef %25)
  br label %28

26:                                               ; preds = %1
  %27 = load ptr, ptr @stdout, align 8
  store ptr %27, ptr %5, align 8
  br label %28

28:                                               ; preds = %26, %24
  %29 = load ptr, ptr %3, align 8
  %30 = icmp ne ptr %29, null
  br i1 %30, label %31, label %83

31:                                               ; preds = %28
  %32 = load i8, ptr getelementptr inbounds nuw (%struct._e_prefs, ptr @prefs, i32 0, i32 84), align 4, !range !6, !noundef !7
  %33 = trunc i8 %32 to i1
  br i1 %33, label %34, label %44

34:                                               ; preds = %31
  call void @llvm.lifetime.start.p0(i64 8, ptr %8) #17
  store ptr null, ptr %8, align 8
  store i8 0, ptr getelementptr inbounds nuw (%struct._e_prefs, ptr @prefs, i32 0, i32 84), align 4
  %35 = call ptr @uat_get_table_by_name(ptr noundef @.str.84)
  %36 = call zeroext i1 @uat_save(ptr noundef %35, ptr noundef %8)
  br i1 %36, label %43, label %37

37:                                               ; preds = %34
  br label %38

38:                                               ; preds = %37
  %39 = load ptr, ptr %8, align 8
  call void (ptr, i32, ptr, i64, ptr, ptr, ...) @ws_log_full(ptr noundef @.str, i32 noundef 5, ptr noundef @.str.1, i64 noundef 7192, ptr noundef @__func__.write_prefs, ptr noundef @.str.85, ptr noundef %39)
  br label %40

40:                                               ; preds = %38
  br label %41

41:                                               ; preds = %40
  %42 = load ptr, ptr %8, align 8
  call void @g_free(ptr noundef %42)
  br label %43

43:                                               ; preds = %41, %34
  call void @llvm.lifetime.end.p0(i64 8, ptr %8) #17
  br label %44

44:                                               ; preds = %43, %31
  call void @llvm.lifetime.start.p0(i64 8, ptr %9) #17
  %45 = call ptr @prefs_find_module(ptr noundef @.str.86)
  store ptr %45, ptr %9, align 8
  %46 = load ptr, ptr %9, align 8
  %47 = icmp ne ptr %46, null
  br i1 %47, label %48, label %82

48:                                               ; preds = %44
  %49 = load i8, ptr getelementptr inbounds nuw (%struct._e_prefs, ptr @prefs, i32 0, i32 71), align 1, !range !6, !noundef !7
  %50 = trunc i8 %49 to i1
  br i1 %50, label %82, label %51

51:                                               ; preds = %48
  call void @llvm.lifetime.start.p0(i64 8, ptr %10) #17
  %52 = call ptr @get_persconffile_path(ptr noundef @.str.87, i1 noundef zeroext true)
  store ptr %52, ptr %10, align 8
  call void @llvm.lifetime.start.p0(i64 8, ptr %11) #17
  %53 = load ptr, ptr %10, align 8
  %54 = call noalias ptr @fopen(ptr noundef %53, ptr noundef @.str.83)
  store ptr %54, ptr %11, align 8
  %55 = icmp eq ptr %54, null
  br i1 %55, label %56, label %70

56:                                               ; preds = %51
  %57 = call ptr @__errno_location() #23
  %58 = load i32, ptr %57, align 4
  %59 = icmp ne i32 %58, 21
  br i1 %59, label %60, label %68

60:                                               ; preds = %56
  br label %61

61:                                               ; preds = %60
  %62 = load ptr, ptr %10, align 8
  %63 = call ptr @__errno_location() #23
  %64 = load i32, ptr %63, align 4
  %65 = call ptr @g_strerror(i32 noundef %64) #23
  call void (ptr, i32, ptr, i64, ptr, ptr, ...) @ws_log_full(ptr noundef @.str, i32 noundef 5, ptr noundef @.str.1, i64 noundef 7204, ptr noundef @__func__.write_prefs, ptr noundef @.str.88, ptr noundef %62, ptr noundef %65)
  br label %66

66:                                               ; preds = %61
  br label %67

67:                                               ; preds = %66
  br label %68

68:                                               ; preds = %67, %56
  %69 = load ptr, ptr %10, align 8
  call void @g_free(ptr noundef %69)
  br label %81

70:                                               ; preds = %51
  %71 = load ptr, ptr %10, align 8
  call void @g_free(ptr noundef %71)
  %72 = load ptr, ptr %11, align 8
  %73 = call i32 @fputs(ptr noundef @.str.89, ptr noundef %72)
  %74 = load ptr, ptr %11, align 8
  %75 = getelementptr inbounds nuw %struct.write_gui_pref_arg_t, ptr %6, i32 0, i32 0
  store ptr %74, ptr %75, align 8
  %76 = getelementptr inbounds nuw %struct.write_gui_pref_arg_t, ptr %6, i32 0, i32 1
  store i8 0, ptr %76, align 8
  %77 = load ptr, ptr %9, align 8
  %78 = call i32 @write_module_prefs(ptr noundef %77, ptr noundef %6)
  %79 = load ptr, ptr %11, align 8
  %80 = call i32 @fclose(ptr noundef %79)
  br label %81

81:                                               ; preds = %70, %68
  call void @llvm.lifetime.end.p0(i64 8, ptr %11) #17
  call void @llvm.lifetime.end.p0(i64 8, ptr %10) #17
  br label %82

82:                                               ; preds = %81, %48, %44
  call void @llvm.lifetime.end.p0(i64 8, ptr %9) #17
  br label %83

83:                                               ; preds = %82, %28
  %84 = load ptr, ptr %5, align 8
  %85 = call i32 @fputs(ptr noundef @.str.90, ptr noundef %84)
  %86 = load ptr, ptr %5, align 8
  %87 = getelementptr inbounds nuw %struct.write_gui_pref_arg_t, ptr %6, i32 0, i32 0
  store ptr %86, ptr %87, align 8
  %88 = getelementptr inbounds nuw %struct.write_gui_pref_arg_t, ptr %6, i32 0, i32 1
  store i8 1, ptr %88, align 8
  %89 = load ptr, ptr @gui_module, align 8
  %90 = call i32 @write_module_prefs(ptr noundef %89, ptr noundef %6)
  %91 = getelementptr inbounds nuw %struct.write_gui_pref_arg_t, ptr %6, i32 0, i32 1
  store i8 0, ptr %91, align 8
  %92 = call i32 @prefs_modules_foreach_submodules(ptr noundef null, ptr noundef @write_module_prefs, ptr noundef %6)
  %93 = load ptr, ptr %5, align 8
  %94 = call i32 @fclose(ptr noundef %93)
  store i32 0, ptr %2, align 4
  store i32 1, ptr %7, align 4
  br label %95

95:                                               ; preds = %83, %19
  call void @llvm.lifetime.end.p0(i64 16, ptr %6) #17
  call void @llvm.lifetime.end.p0(i64 8, ptr %5) #17
  call void @llvm.lifetime.end.p0(i64 8, ptr %4) #17
  %96 = load i32, ptr %2, align 4
  ret i32 %96
}