; Function Attrs: null_pointer_is_valid sspstrong uwtable
define i32 @write_prefs(ptr noundef writeonly captures(address_is_null) %0) local_unnamed_addr #1 {
  %2 = alloca %struct.call_foreach_t, align 8
  %3 = alloca %struct.write_gui_pref_arg_t, align 8
  %4 = alloca ptr, align 8
  call void @llvm.lifetime.start.p0(i64 16, ptr nonnull %3) #25
  %.b1.i = load i1, ptr @prefs_initialized, align 1
  br i1 %.b1.i, label %init_prefs.exit, label %5

5:                                                ; preds = %1
  tail call void @uat_load_all()
  tail call fastcc void @pre_init_prefs()
  tail call fastcc void @prefs_register_modules()
  store i1 true, ptr @prefs_initialized, align 1
  br label %init_prefs.exit

init_prefs.exit:                                  ; preds = %1, %5
  %.not = icmp eq ptr %0, null
  br i1 %.not, label %.thread, label %6

6:                                                ; preds = %init_prefs.exit
  %7 = tail call ptr @get_persconffile_path(ptr noundef nonnull @.str.14, i1 noundef zeroext true)
  %8 = tail call noalias ptr @fopen(ptr noundef %7, ptr noundef nonnull @.str.83)
  %9 = icmp eq ptr %8, null
  br i1 %9, label %10, label %14

10:                                               ; preds = %6
  store ptr %7, ptr %0, align 8
  %11 = tail call ptr @__errno_location() #30
  %12 = load i32, ptr %11, align 4
  br label %56

.thread:                                          ; preds = %init_prefs.exit
  %13 = load ptr, ptr @stdout, align 8
  br label %45

14:                                               ; preds = %6
  tail call void @g_free(ptr noundef %7)
  %15 = load i8, ptr getelementptr inbounds nuw (i8, ptr @prefs, i64 404), align 4, !range !6, !noundef !7
  %16 = trunc nuw i8 %15 to i1
  br i1 %16, label %17, label %24

17:                                               ; preds = %14
  call void @llvm.lifetime.start.p0(i64 8, ptr nonnull %4) #25
  store ptr null, ptr %4, align 8
  store i8 0, ptr getelementptr inbounds nuw (i8, ptr @prefs, i64 404), align 4
  %18 = tail call ptr @uat_get_table_by_name(ptr noundef nonnull @.str.84)
  %19 = call zeroext i1 @uat_save(ptr noundef %18, ptr noundef nonnull %4)
  br i1 %19, label %23, label %20

20:                                               ; preds = %17
  %21 = load ptr, ptr %4, align 8
  call void (ptr, i32, ptr, i64, ptr, ptr, ...) @ws_log_full(ptr noundef nonnull @.str, i32 noundef 5, ptr noundef nonnull @.str.1, i64 noundef 7192, ptr noundef nonnull @__func__.write_prefs, ptr noundef nonnull @.str.85, ptr noundef %21)
  %22 = load ptr, ptr %4, align 8
  call void @g_free(ptr noundef %22)
  br label %23

23:                                               ; preds = %20, %17
  call void @llvm.lifetime.end.p0(i64 8, ptr nonnull %4) #25
  br label %24

24:                                               ; preds = %23, %14
  %25 = load ptr, ptr @prefs_modules, align 8
  %26 = call ptr @wmem_tree_lookup_string(ptr noundef %25, ptr noundef nonnull @.str.86, i32 noundef 1)
  %.not24 = icmp eq ptr %26, null
  br i1 %.not24, label %45, label %27

27:                                               ; preds = %24
  %28 = load i8, ptr getelementptr inbounds nuw (i8, ptr @prefs, i64 361), align 1, !range !6, !noundef !7
  %29 = trunc nuw i8 %28 to i1
  br i1 %29, label %45, label %30

30:                                               ; preds = %27
  %31 = call ptr @get_persconffile_path(ptr noundef nonnull @.str.87, i1 noundef zeroext true)
  %32 = call noalias ptr @fopen(ptr noundef %31, ptr noundef nonnull @.str.83)
  %33 = icmp eq ptr %32, null
  br i1 %33, label %34, label %40

34:                                               ; preds = %30
  %35 = tail call ptr @__errno_location() #30
  %36 = load i32, ptr %35, align 4
  %.not25 = icmp eq i32 %36, 21
  br i1 %.not25, label %39, label %37

37:                                               ; preds = %34
  %38 = call ptr @g_strerror(i32 noundef %36) #30
  call void (ptr, i32, ptr, i64, ptr, ptr, ...) @ws_log_full(ptr noundef nonnull @.str, i32 noundef 5, ptr noundef nonnull @.str.1, i64 noundef 7204, ptr noundef nonnull @__func__.write_prefs, ptr noundef nonnull @.str.88, ptr noundef %31, ptr noundef %38)
  br label %39

39:                                               ; preds = %37, %34
  call void @g_free(ptr noundef %31)
  br label %45

40:                                               ; preds = %30
  call void @g_free(ptr noundef %31)
  %41 = call i64 @fwrite(ptr nonnull @.str.89, i64 270, i64 1, ptr nonnull %32)
  store ptr %32, ptr %3, align 8
  %42 = getelementptr inbounds nuw i8, ptr %3, i64 8
  store i8 0, ptr %42, align 8
  %43 = call i32 @write_module_prefs(ptr noundef nonnull %26, ptr noundef nonnull %3)
  %44 = call i32 @fclose(ptr noundef nonnull %32)
  br label %45

45:                                               ; preds = %.thread, %24, %27, %40, %39
  %.01827 = phi ptr [ %13, %.thread ], [ %8, %24 ], [ %8, %27 ], [ %8, %40 ], [ %8, %39 ]
  %46 = call i64 @fwrite(ptr nonnull @.str.90, i64 263, i64 1, ptr %.01827)
  store ptr %.01827, ptr %3, align 8
  %47 = getelementptr inbounds nuw i8, ptr %3, i64 8
  store i8 1, ptr %47, align 8
  %48 = load ptr, ptr @gui_module, align 8
  %49 = call i32 @write_module_prefs(ptr noundef %48, ptr noundef nonnull %3)
  store i8 0, ptr %47, align 8
  %50 = load ptr, ptr @prefs_top_level_modules, align 8
  call void @llvm.lifetime.start.p0(i64 24, ptr nonnull %2) #25
  store ptr @write_module_prefs, ptr %2, align 8
  %51 = getelementptr inbounds nuw i8, ptr %2, i64 8
  store ptr %3, ptr %51, align 8
  %52 = getelementptr inbounds nuw i8, ptr %2, i64 16
  store i32 0, ptr %52, align 8
  %53 = getelementptr inbounds nuw i8, ptr %2, i64 20
  store i8 1, ptr %53, align 4
  %54 = call zeroext i1 @wmem_tree_foreach(ptr noundef %50, ptr noundef nonnull @call_foreach_cb, ptr noundef nonnull %2)
  call void @llvm.lifetime.end.p0(i64 24, ptr nonnull %2) #25
  %55 = call i32 @fclose(ptr noundef %.01827)
  br label %56

56:                                               ; preds = %45, %10
  %.0 = phi i32 [ %12, %10 ], [ 0, %45 ]
  call void @llvm.lifetime.end.p0(i64 16, ptr nonnull %3) #25
  ret i32 %.0
}